; Function Attrs: nofree norecurse nosync nounwind memory(argmem: read) uwtable
define dso_local i64 @bit_ffs_from_bit(ptr noundef readonly captures(none) %0, i64 noundef %1) local_unnamed_addr #3 {
  %3 = and i64 %1, 63
  %.not = icmp ne i64 %3, 0
  %.phi.trans.insert = getelementptr inbounds nuw i8, ptr %0, i64 8
  %.pre = load i64, ptr %.phi.trans.insert, align 8
  %4 = icmp slt i64 %1, %.pre
  %or.cond = select i1 %.not, i1 %4, i1 false
  br i1 %or.cond, label %5, label %._crit_edge

5:                                                ; preds = %2
  %notmask = shl nsw i64 -1, %3
  %6 = and i64 %1, -64
  %7 = shl i64 %1, 26
  %sext = add i64 %7, 8589934592
  %8 = ashr i64 %sext, 32
  %9 = getelementptr inbounds i64, ptr %0, i64 %8
  %10 = load i64, ptr %9, align 8
  %11 = and i64 %10, %notmask
  br label %20

._crit_edge:                                      ; preds = %2, %24, %22
  %.127 = phi i64 [ %23, %22 ], [ %.026, %24 ], [ %1, %2 ]
  %.1 = phi i64 [ -1, %22 ], [ %26, %24 ], [ -1, %2 ]
  %12 = icmp slt i64 %.127, %.pre
  %13 = icmp eq i64 %.1, -1
  %14 = select i1 %12, i1 %13, i1 false
  br i1 %14, label %15, label %27

15:                                               ; preds = %._crit_edge
  %16 = shl i64 %.127, 26
  %sext31 = add i64 %16, 8589934592
  %17 = ashr i64 %sext31, 32
  %18 = getelementptr inbounds i64, ptr %0, i64 %17
  %19 = load i64, ptr %18, align 8
  br label %20

20:                                               ; preds = %5, %15
  %.026 = phi i64 [ %6, %5 ], [ %.127, %15 ]
  %.024 = phi i64 [ %11, %5 ], [ %19, %15 ]
  %21 = icmp eq i64 %.024, 0
  br i1 %21, label %22, label %24

22:                                               ; preds = %20
  %23 = add i64 %.026, 64
  br label %._crit_edge, !llvm.loop !16

24:                                               ; preds = %20
  %25 = tail call range(i64 0, 65) i64 @llvm.cttz.i64(i64 %.024, i1 true)
  %26 = add nsw i64 %25, %.026
  br label %._crit_edge, !llvm.loop !16

27:                                               ; preds = %._crit_edge
  %28 = icmp slt i64 %.1, %.pre
  %.1. = select i1 %28, i64 %.1, i64 -1
  ret i64 %.1.
}